target datalayout = "e-m:e-p270:32:32-p271:32:32-p272:64:64-i64:64-i128:128-f80:128-n8:16:32:64-S128"
target triple = "x86_64-pc-linux-gnu"

%struct.bn_mont_ctx_st = type { %struct.bignum_st, %struct.bignum_st, [2 x i64] }
%struct.bignum_st = type { ptr, i32, i32, i32, i32 }

@.str = private unnamed_addr constant [126 x i8] c"generated/home/dtcxzyw/WorkSpace/Projects/compilers/llvm-opt-benchmark/bench/libquic/libquic/boringssl/crypto/bn/montgomery.c\00", align 1

; Function Attrs: nounwind uwtable
define hidden i32 @BN_MONT_CTX_set(ptr noundef %0, ptr noundef %1, ptr noundef %2) #0 {
  %4 = alloca i32, align 4
  %5 = alloca ptr, align 8
  %6 = alloca ptr, align 8
  %7 = alloca ptr, align 8
  %8 = alloca i32, align 4
  %9 = alloca ptr, align 8
  %10 = alloca ptr, align 8
  %11 = alloca %struct.bignum_st, align 8
  %12 = alloca [2 x i64], align 16
  %13 = alloca i32, align 4
  %14 = alloca i32, align 4
  store ptr %0, ptr %5, align 8, !tbaa !6
  store ptr %1, ptr %6, align 8, !tbaa !13
  store ptr %2, ptr %7, align 8, !tbaa !15
  call void @llvm.lifetime.start.p0(i64 4, ptr %8) #6
  store i32 0, ptr %8, align 4, !tbaa !17
  call void @llvm.lifetime.start.p0(i64 8, ptr %9) #6
  call void @llvm.lifetime.start.p0(i64 8, ptr %10) #6
  call void @llvm.lifetime.start.p0(i64 24, ptr %11) #6
  call void @llvm.lifetime.start.p0(i64 16, ptr %12) #6
  %15 = load ptr, ptr %6, align 8, !tbaa !13
  %16 = call i32 @BN_is_zero(ptr noundef %15)
  %17 = icmp ne i32 %16, 0
  br i1 %17, label %18, label %19

18:                                               ; preds = %3
  call void @ERR_put_error(i32 noundef 3, i32 noundef 0, i32 noundef 105, ptr noundef @.str, i32 noundef 172)
  store i32 0, ptr %4, align 4
  store i32 1, ptr %13, align 4
  br label %145

19:                                               ; preds = %3
  %20 = load ptr, ptr %7, align 8, !tbaa !15
  call void @BN_CTX_start(ptr noundef %20)
  %21 = load ptr, ptr %7, align 8, !tbaa !15
  %22 = call ptr @BN_CTX_get(ptr noundef %21)
  store ptr %22, ptr %9, align 8, !tbaa !13
  %23 = load ptr, ptr %9, align 8, !tbaa !13
  %24 = icmp eq ptr %23, null
  br i1 %24, label %25, label %26

25:                                               ; preds = %19
  br label %142

26:                                               ; preds = %19
  %27 = load ptr, ptr %5, align 8, !tbaa !6
  %28 = getelementptr inbounds nuw %struct.bn_mont_ctx_st, ptr %27, i32 0, i32 0
  store ptr %28, ptr %10, align 8, !tbaa !13
  %29 = load ptr, ptr %5, align 8, !tbaa !6
  %30 = getelementptr inbounds nuw %struct.bn_mont_ctx_st, ptr %29, i32 0, i32 1
  %31 = load ptr, ptr %6, align 8, !tbaa !13
  %32 = call ptr @BN_copy(ptr noundef %30, ptr noundef %31)
  %33 = icmp ne ptr %32, null
  br i1 %33, label %35, label %34

34:                                               ; preds = %26
  br label %142

35:                                               ; preds = %26
  %36 = load ptr, ptr %5, align 8, !tbaa !6
  %37 = getelementptr inbounds nuw %struct.bn_mont_ctx_st, ptr %36, i32 0, i32 1
  %38 = getelementptr inbounds nuw %struct.bignum_st, ptr %37, i32 0, i32 3
  store i32 0, ptr %38, align 8, !tbaa !19
  call void @BN_init(ptr noundef %11)
  %39 = getelementptr inbounds [2 x i64], ptr %12, i64 0, i64 0
  %40 = getelementptr inbounds nuw %struct.bignum_st, ptr %11, i32 0, i32 0
  store ptr %39, ptr %40, align 8, !tbaa !23
  %41 = getelementptr inbounds nuw %struct.bignum_st, ptr %11, i32 0, i32 2
  store i32 2, ptr %41, align 4, !tbaa !24
  %42 = getelementptr inbounds nuw %struct.bignum_st, ptr %11, i32 0, i32 3
  store i32 0, ptr %42, align 8, !tbaa !25
  %43 = load ptr, ptr %10, align 8, !tbaa !13
  call void @BN_zero(ptr noundef %43)
  %44 = load ptr, ptr %10, align 8, !tbaa !13
  %45 = call i32 @BN_set_bit(ptr noundef %44, i32 noundef 64)
  %46 = icmp ne i32 %45, 0
  br i1 %46, label %48, label %47

47:                                               ; preds = %35
  br label %142

48:                                               ; preds = %35
  %49 = load ptr, ptr %6, align 8, !tbaa !13
  %50 = getelementptr inbounds nuw %struct.bignum_st, ptr %49, i32 0, i32 0
  %51 = load ptr, ptr %50, align 8, !tbaa !23
  %52 = getelementptr inbounds i64, ptr %51, i64 0
  %53 = load i64, ptr %52, align 8, !tbaa !11
  %54 = getelementptr inbounds [2 x i64], ptr %12, i64 0, i64 0
  store i64 %53, ptr %54, align 16, !tbaa !11
  %55 = getelementptr inbounds [2 x i64], ptr %12, i64 0, i64 1
  store i64 0, ptr %55, align 8, !tbaa !11
  %56 = getelementptr inbounds [2 x i64], ptr %12, i64 0, i64 0
  %57 = load i64, ptr %56, align 16, !tbaa !11
  %58 = icmp ne i64 %57, 0
  %59 = select i1 %58, i32 1, i32 0
  %60 = getelementptr inbounds nuw %struct.bignum_st, ptr %11, i32 0, i32 1
  store i32 %59, ptr %60, align 8, !tbaa !26
  %61 = load ptr, ptr %9, align 8, !tbaa !13
  %62 = load ptr, ptr %10, align 8, !tbaa !13
  %63 = load ptr, ptr %7, align 8, !tbaa !15
  %64 = call ptr @BN_mod_inverse(ptr noundef %61, ptr noundef %62, ptr noundef %11, ptr noundef %63)
  %65 = icmp eq ptr %64, null
  br i1 %65, label %66, label %67

66:                                               ; preds = %48
  br label %142

67:                                               ; preds = %48
  %68 = load ptr, ptr %9, align 8, !tbaa !13
  %69 = load ptr, ptr %9, align 8, !tbaa !13
  %70 = call i32 @BN_lshift(ptr noundef %68, ptr noundef %69, i32 noundef 64)
  %71 = icmp ne i32 %70, 0
  br i1 %71, label %73, label %72

72:                                               ; preds = %67
  br label %142

73:                                               ; preds = %67
  %74 = load ptr, ptr %9, align 8, !tbaa !13
  %75 = call i32 @BN_is_zero(ptr noundef %74)
  %76 = icmp ne i32 %75, 0
  br i1 %76, label %83, label %77

77:                                               ; preds = %73
  %78 = load ptr, ptr %9, align 8, !tbaa !13
  %79 = call i32 @BN_sub_word(ptr noundef %78, i64 noundef 1)
  %80 = icmp ne i32 %79, 0
  br i1 %80, label %82, label %81

81:                                               ; preds = %77
  br label %142

82:                                               ; preds = %77
  br label %89

83:                                               ; preds = %73
  %84 = load ptr, ptr %9, align 8, !tbaa !13
  %85 = call i32 @BN_set_word(ptr noundef %84, i64 noundef -1)
  %86 = icmp ne i32 %85, 0
  br i1 %86, label %88, label %87

87:                                               ; preds = %83
  br label %142

88:                                               ; preds = %83
  br label %89

89:                                               ; preds = %88, %82
  %90 = load ptr, ptr %9, align 8, !tbaa !13
  %91 = load ptr, ptr %9, align 8, !tbaa !13
  %92 = load ptr, ptr %7, align 8, !tbaa !15
  %93 = call i32 @BN_div(ptr noundef %90, ptr noundef null, ptr noundef %91, ptr noundef %11, ptr noundef %92)
  %94 = icmp ne i32 %93, 0
  br i1 %94, label %96, label %95

95:                                               ; preds = %89
  br label %142

96:                                               ; preds = %89
  %97 = load ptr, ptr %9, align 8, !tbaa !13
  %98 = getelementptr inbounds nuw %struct.bignum_st, ptr %97, i32 0, i32 1
  %99 = load i32, ptr %98, align 8, !tbaa !26
  %100 = icmp sgt i32 %99, 0
  br i1 %100, label %101, label %107

101:                                              ; preds = %96
  %102 = load ptr, ptr %9, align 8, !tbaa !13
  %103 = getelementptr inbounds nuw %struct.bignum_st, ptr %102, i32 0, i32 0
  %104 = load ptr, ptr %103, align 8, !tbaa !23
  %105 = getelementptr inbounds i64, ptr %104, i64 0
  %106 = load i64, ptr %105, align 8, !tbaa !11
  br label %108

107:                                              ; preds = %96
  br label %108

108:                                              ; preds = %107, %101
  %109 = phi i64 [ %106, %101 ], [ 0, %107 ]
  %110 = load ptr, ptr %5, align 8, !tbaa !6
  %111 = getelementptr inbounds nuw %struct.bn_mont_ctx_st, ptr %110, i32 0, i32 2
  %112 = getelementptr inbounds [2 x i64], ptr %111, i64 0, i64 0
  store i64 %109, ptr %112, align 8, !tbaa !11
  %113 = load ptr, ptr %5, align 8, !tbaa !6
  %114 = getelementptr inbounds nuw %struct.bn_mont_ctx_st, ptr %113, i32 0, i32 2
  %115 = getelementptr inbounds [2 x i64], ptr %114, i64 0, i64 1
  store i64 0, ptr %115, align 8, !tbaa !11
  %116 = load ptr, ptr %6, align 8, !tbaa !13
  %117 = call i32 @BN_num_bits(ptr noundef %116)
  %118 = add i32 %117, 63
  %119 = udiv i32 %118, 64
  %120 = mul i32 %119, 64
  store i32 %120, ptr %14, align 4, !tbaa !17
  %121 = load ptr, ptr %5, align 8, !tbaa !6
  %122 = getelementptr inbounds nuw %struct.bn_mont_ctx_st, ptr %121, i32 0, i32 0
  call void @BN_zero(ptr noundef %122)
  %123 = load ptr, ptr %5, align 8, !tbaa !6
  %124 = getelementptr inbounds nuw %struct.bn_mont_ctx_st, ptr %123, i32 0, i32 0
  %125 = load i32, ptr %14, align 4, !tbaa !17
  %126 = mul nsw i32 %125, 2
  %127 = call i32 @BN_set_bit(ptr noundef %124, i32 noundef %126)
  %128 = icmp ne i32 %127, 0
  br i1 %128, label %130, label %129

129:                                              ; preds = %108
  br label %142

130:                                              ; preds = %108
  %131 = load ptr, ptr %5, align 8, !tbaa !6
  %132 = getelementptr inbounds nuw %struct.bn_mont_ctx_st, ptr %131, i32 0, i32 0
  %133 = load ptr, ptr %5, align 8, !tbaa !6
  %134 = getelementptr inbounds nuw %struct.bn_mont_ctx_st, ptr %133, i32 0, i32 0
  %135 = load ptr, ptr %5, align 8, !tbaa !6
  %136 = getelementptr inbounds nuw %struct.bn_mont_ctx_st, ptr %135, i32 0, i32 1
  %137 = load ptr, ptr %7, align 8, !tbaa !15
  %138 = call i32 @BN_div(ptr noundef null, ptr noundef %132, ptr noundef %134, ptr noundef %136, ptr noundef %137)
  %139 = icmp ne i32 %138, 0
  br i1 %139, label %141, label %140

140:                                              ; preds = %130
  br label %142

141:                                              ; preds = %130
  store i32 1, ptr %8, align 4, !tbaa !17
  br label %142

142:                                              ; preds = %141, %140, %129, %95, %87, %81, %72, %66, %47, %34, %25
  %143 = load ptr, ptr %7, align 8, !tbaa !15
  call void @BN_CTX_end(ptr noundef %143)
  %144 = load i32, ptr %8, align 4, !tbaa !17
  store i32 %144, ptr %4, align 4
  store i32 1, ptr %13, align 4
  br label %145

145:                                              ; preds = %142, %18
  call void @llvm.lifetime.end.p0(i64 16, ptr %12) #6
  call void @llvm.lifetime.end.p0(i64 24, ptr %11) #6
  call void @llvm.lifetime.end.p0(i64 8, ptr %10) #6
  call void @llvm.lifetime.end.p0(i64 8, ptr %9) #6
  call void @llvm.lifetime.end.p0(i64 4, ptr %8) #6
  %146 = load i32, ptr %4, align 4
  ret i32 %146
}