; Function Attrs: nounwind uwtable
define hidden range(i32 0, 2) i32 @BN_MONT_CTX_set(ptr noundef %0, ptr noundef %1, ptr noundef %2) local_unnamed_addr #0 {
  %4 = alloca %struct.bignum_st, align 8
  %5 = alloca [2 x i64], align 16
  call void @llvm.lifetime.start.p0(i64 24, ptr nonnull %4) #6
  call void @llvm.lifetime.start.p0(i64 16, ptr nonnull %5) #6
  %6 = tail call i32 @BN_is_zero(ptr noundef %1) #6
  %.not = icmp eq i32 %6, 0
  br i1 %.not, label %8, label %7

7:                                                ; preds = %3
  tail call void @ERR_put_error(i32 noundef 3, i32 noundef 0, i32 noundef 105, ptr noundef nonnull @.str, i32 noundef 172) #6
  br label %56

8:                                                ; preds = %3
  tail call void @BN_CTX_start(ptr noundef %2) #6
  %9 = tail call ptr @BN_CTX_get(ptr noundef %2) #6
  %10 = icmp eq ptr %9, null
  br i1 %10, label %55, label %11

11:                                               ; preds = %8
  %12 = getelementptr inbounds nuw i8, ptr %0, i64 24
  %13 = tail call ptr @BN_copy(ptr noundef nonnull %12, ptr noundef %1) #6
  %.not38 = icmp eq ptr %13, null
  br i1 %.not38, label %55, label %14

14:                                               ; preds = %11
  %15 = getelementptr inbounds nuw i8, ptr %0, i64 40
  store i32 0, ptr %15, align 8, !tbaa !10
  call void @BN_init(ptr noundef nonnull %4) #6
  store ptr %5, ptr %4, align 8, !tbaa !16
  %16 = getelementptr inbounds nuw i8, ptr %4, i64 12
  store i32 2, ptr %16, align 4, !tbaa !17
  %17 = getelementptr inbounds nuw i8, ptr %4, i64 16
  store i32 0, ptr %17, align 8, !tbaa !18
  call void @BN_zero(ptr noundef nonnull %0) #6
  %18 = call i32 @BN_set_bit(ptr noundef nonnull %0, i32 noundef 64) #6
  %.not39 = icmp eq i32 %18, 0
  br i1 %.not39, label %55, label %19

19:                                               ; preds = %14
  %20 = load ptr, ptr %1, align 8, !tbaa !16
  %21 = load i64, ptr %20, align 8, !tbaa !6
  store i64 %21, ptr %5, align 16, !tbaa !6
  %22 = getelementptr inbounds nuw i8, ptr %5, i64 8
  store i64 0, ptr %22, align 8, !tbaa !6
  %.not40 = icmp ne i64 %21, 0
  %23 = zext i1 %.not40 to i32
  %24 = getelementptr inbounds nuw i8, ptr %4, i64 8
  store i32 %23, ptr %24, align 8, !tbaa !19
  %25 = call ptr @BN_mod_inverse(ptr noundef nonnull %9, ptr noundef nonnull %0, ptr noundef nonnull %4, ptr noundef %2) #6
  %26 = icmp eq ptr %25, null
  br i1 %26, label %55, label %27

27:                                               ; preds = %19
  %28 = call i32 @BN_lshift(ptr noundef nonnull %9, ptr noundef nonnull %9, i32 noundef 64) #6
  %.not41 = icmp eq i32 %28, 0
  br i1 %.not41, label %55, label %29

29:                                               ; preds = %27
  %30 = call i32 @BN_is_zero(ptr noundef nonnull %9) #6
  %.not42 = icmp eq i32 %30, 0
  br i1 %.not42, label %31, label %33

31:                                               ; preds = %29
  %32 = call i32 @BN_sub_word(ptr noundef nonnull %9, i64 noundef 1) #6
  %.not43 = icmp eq i32 %32, 0
  br i1 %.not43, label %55, label %35

33:                                               ; preds = %29
  %34 = call i32 @BN_set_word(ptr noundef nonnull %9, i64 noundef -1) #6
  %.not44 = icmp eq i32 %34, 0
  br i1 %.not44, label %55, label %35

35:                                               ; preds = %33, %31
  %36 = call i32 @BN_div(ptr noundef nonnull %9, ptr noundef null, ptr noundef nonnull %9, ptr noundef nonnull %4, ptr noundef %2) #6
  %.not45 = icmp eq i32 %36, 0
  br i1 %.not45, label %55, label %37

37:                                               ; preds = %35
  %38 = getelementptr inbounds nuw i8, ptr %9, i64 8
  %39 = load i32, ptr %38, align 8, !tbaa !19
  %40 = icmp sgt i32 %39, 0
  br i1 %40, label %41, label %44

41:                                               ; preds = %37
  %42 = load ptr, ptr %9, align 8, !tbaa !16
  %43 = load i64, ptr %42, align 8, !tbaa !6
  br label %44

44:                                               ; preds = %37, %41
  %45 = phi i64 [ %43, %41 ], [ 0, %37 ]
  %46 = getelementptr inbounds nuw i8, ptr %0, i64 48
  store i64 %45, ptr %46, align 8, !tbaa !6
  %47 = getelementptr inbounds nuw i8, ptr %0, i64 56
  store i64 0, ptr %47, align 8, !tbaa !6
  %48 = call i32 @BN_num_bits(ptr noundef nonnull %1) #6
  call void @BN_zero(ptr noundef nonnull %0) #6
  %49 = shl i32 %48, 1
  %50 = add i32 %49, 126
  %51 = and i32 %50, -128
  %52 = call i32 @BN_set_bit(ptr noundef nonnull %0, i32 noundef %51) #6
  %.not46 = icmp eq i32 %52, 0
  br i1 %.not46, label %55, label %53

53:                                               ; preds = %44
  %54 = call i32 @BN_div(ptr noundef null, ptr noundef nonnull %0, ptr noundef nonnull %0, ptr noundef nonnull %12, ptr noundef %2) #6
  %.not47 = icmp ne i32 %54, 0
  %spec.select = zext i1 %.not47 to i32
  br label %55

55:                                               ; preds = %53, %44, %35, %33, %31, %27, %19, %14, %11, %8
  %.036 = phi i32 [ 0, %8 ], [ 0, %19 ], [ 0, %44 ], [ 0, %35 ], [ 0, %33 ], [ 0, %31 ], [ 0, %27 ], [ 0, %14 ], [ 0, %11 ], [ %spec.select, %53 ]
  call void @BN_CTX_end(ptr noundef %2) #6
  br label %56

56:                                               ; preds = %55, %7
  %.0 = phi i32 [ 0, %7 ], [ %.036, %55 ]
  call void @llvm.lifetime.end.p0(i64 16, ptr nonnull %5) #6
  call void @llvm.lifetime.end.p0(i64 24, ptr nonnull %4) #6
  ret i32 %.0
}